	.file	"primes.c"
	.intel_syntax noprefix
	.text
	.globl	isPrime
	.type	isPrime, @function
isPrime:
.LFB0:
	.cfi_startproc
	endbr64
	push	rbp
	.cfi_def_cfa_offset 16
	.cfi_offset 6, -16
	mov	rbp, rsp
	.cfi_def_cfa_register 6
	mov	DWORD PTR -20[rbp], edi
	mov	DWORD PTR -4[rbp], 2
	jmp	.L2
.L5:
	mov	eax, DWORD PTR -20[rbp]
	cdq
	idiv	DWORD PTR -4[rbp]
	mov	eax, edx
	test	eax, eax
	jne	.L3
	mov	eax, 0
	jmp	.L4
.L3:
	add	DWORD PTR -4[rbp], 1
.L2:
	mov	eax, DWORD PTR -4[rbp]
	cmp	eax, DWORD PTR -20[rbp]
	jl	.L5
	mov	eax, 1
.L4:
	pop	rbp
	.cfi_def_cfa 7, 8
	ret
	.cfi_endproc
.LFE0:
	.size	isPrime, .-isPrime
	.section	.rodata
.LC0:
	.string	"%d\n"
	.text
	.globl	main
	.type	main, @function
main:
.LFB1:
	.cfi_startproc
	endbr64
	push	rbp
	.cfi_def_cfa_offset 16
	.cfi_offset 6, -16
	mov	rbp, rsp
	.cfi_def_cfa_register 6
	sub	rsp, 16
	mov	DWORD PTR -4[rbp], 2
	mov	DWORD PTR -4[rbp], 2
	jmp	.L7
.L9:
	mov	eax, DWORD PTR -4[rbp]
	mov	edi, eax
	call	isPrime
	test	eax, eax
	je	.L8
	mov	eax, DWORD PTR -4[rbp]
	mov	esi, eax
	lea	rax, .LC0[rip]
	mov	rdi, rax
	mov	eax, 0
	call	printf@PLT
.L8:
	add	DWORD PTR -4[rbp], 1
.L7:
	cmp	DWORD PTR -4[rbp], 99999
	jle	.L9
	mov	eax, 0
	leave
	.cfi_def_cfa 7, 8
	ret
	.cfi_endproc
.LFE1:
	.size	main, .-main
	.ident	"GCC: (Ubuntu 11.4.0-1ubuntu1~22.04) 11.4.0"
	.section	.note.GNU-stack,"",@progbits
	.section	.note.gnu.property,"a"
	.align 8
	.long	1f - 0f
	.long	4f - 1f
	.long	5
0:
	.string	"GNU"
1:
	.align 8
	.long	0xc0000002
	.long	3f - 2f
2:
	.long	0x3
3:
	.align 8
4:
